	.section	__TEXT,__text,regular,pure_instructions
	.file	1 "xiao/lib/function.cc"
	.file	2 "./xiao/include/function.h"
	.file	3 "./xiao/include/globals.h"
	.section	__TEXT,__text,regular,pure_instructions
Ltext_begin:
	.section	__DATA,__data
	.section	__TEXT,__text,regular,pure_instructions
	.globl	__ZN4xiao8FunctionC1Ej
	.align	4, 0x90
__ZN4xiao8FunctionC1Ej:                 ## @_ZN4xiao8FunctionC1Ej
	.cfi_startproc
Lfunc_begin0:
	.loc	1 15 0                  ## xiao/lib/function.cc:15:0
## BB#0:                                ## %entry
	pushq	%rbp
Ltmp2:
	.cfi_def_cfa_offset 16
Ltmp3:
	.cfi_offset %rbp, -16
	movq	%rsp, %rbp
Ltmp4:
	.cfi_def_cfa_register %rbp
	subq	$16, %rsp
	movq	%rdi, -8(%rbp)
	movl	%esi, -12(%rbp)
	movq	-8(%rbp), %rdi
	.loc	1 15 3 prologue_end     ## xiao/lib/function.cc:15:3
Ltmp5:
	movl	-12(%rbp), %esi
	callq	__ZN4xiao8FunctionC2Ej
	addq	$16, %rsp
	popq	%rbp
	ret
Ltmp6:
Lfunc_end0:
	.cfi_endproc

	.globl	__ZN4xiao8FunctionC2Ej
	.align	4, 0x90
__ZN4xiao8FunctionC2Ej:                 ## @_ZN4xiao8FunctionC2Ej
	.cfi_startproc
Lfunc_begin1:
	.loc	1 15 0                  ## xiao/lib/function.cc:15:0
## BB#0:                                ## %entry
	pushq	%rbp
Ltmp9:
	.cfi_def_cfa_offset 16
Ltmp10:
	.cfi_offset %rbp, -16
	movq	%rsp, %rbp
Ltmp11:
	.cfi_def_cfa_register %rbp
	movq	%rdi, -8(%rbp)
	movl	%esi, -12(%rbp)
	movq	-8(%rbp), %rdi
	.loc	1 15 1 prologue_end     ## xiao/lib/function.cc:15:1
Ltmp12:
	movl	-12(%rbp), %esi
	movl	%esi, 32(%rdi)
	.loc	1 15 3                  ## xiao/lib/function.cc:15:3
Ltmp13:
	popq	%rbp
	ret
Ltmp14:
Lfunc_end1:
	.cfi_endproc

	.globl	__ZN4xiao8FunctionD1Ev
	.align	4, 0x90
__ZN4xiao8FunctionD1Ev:                 ## @_ZN4xiao8FunctionD1Ev
	.cfi_startproc
Lfunc_begin2:
	.loc	1 17 0                  ## xiao/lib/function.cc:17:0
## BB#0:                                ## %entry
	pushq	%rbp
Ltmp17:
	.cfi_def_cfa_offset 16
Ltmp18:
	.cfi_offset %rbp, -16
	movq	%rsp, %rbp
Ltmp19:
	.cfi_def_cfa_register %rbp
	subq	$16, %rsp
	movq	%rdi, -8(%rbp)
	movq	-8(%rbp), %rdi
	.loc	1 17 35 prologue_end    ## xiao/lib/function.cc:17:35
Ltmp20:
	callq	__ZN4xiao8FunctionD2Ev
	.loc	1 17 37                 ## xiao/lib/function.cc:17:37
	addq	$16, %rsp
	popq	%rbp
	ret
Ltmp21:
Lfunc_end2:
	.cfi_endproc

	.globl	__ZN4xiao8FunctionD2Ev
	.align	4, 0x90
__ZN4xiao8FunctionD2Ev:                 ## @_ZN4xiao8FunctionD2Ev
	.cfi_startproc
Lfunc_begin3:
	.loc	1 17 0                  ## xiao/lib/function.cc:17:0
## BB#0:                                ## %entry
	pushq	%rbp
Ltmp24:
	.cfi_def_cfa_offset 16
Ltmp25:
	.cfi_offset %rbp, -16
	movq	%rsp, %rbp
Ltmp26:
	.cfi_def_cfa_register %rbp
	movq	%rdi, -8(%rbp)
	.loc	1 17 37 prologue_end    ## xiao/lib/function.cc:17:37
Ltmp27:
	popq	%rbp
	ret
Ltmp28:
Lfunc_end3:
	.cfi_endproc

	.globl	__ZN4xiao8Function5EnterEPNS_14MachineContextE
	.align	4, 0x90
__ZN4xiao8Function5EnterEPNS_14MachineContextE: ## @_ZN4xiao8Function5EnterEPNS_14MachineContextE
	.cfi_startproc
Lfunc_begin4:
	.loc	1 19 0                  ## xiao/lib/function.cc:19:0
## BB#0:                                ## %entry
	pushq	%rbp
Ltmp31:
	.cfi_def_cfa_offset 16
Ltmp32:
	.cfi_offset %rbp, -16
	movq	%rsp, %rbp
Ltmp33:
	.cfi_def_cfa_register %rbp
	movq	%rdi, -8(%rbp)
	movq	%rsi, -16(%rbp)
	.loc	1 19 50 prologue_end    ## xiao/lib/function.cc:19:50
Ltmp34:
	popq	%rbp
	ret
Ltmp35:
Lfunc_end4:
	.cfi_endproc

	.globl	__ZN4xiao8Function6ReturnEPNS_14MachineContextE
	.align	4, 0x90
__ZN4xiao8Function6ReturnEPNS_14MachineContextE: ## @_ZN4xiao8Function6ReturnEPNS_14MachineContextE
	.cfi_startproc
Lfunc_begin5:
	.loc	1 20 0                  ## xiao/lib/function.cc:20:0
## BB#0:                                ## %entry
	pushq	%rbp
Ltmp38:
	.cfi_def_cfa_offset 16
Ltmp39:
	.cfi_offset %rbp, -16
	movq	%rsp, %rbp
Ltmp40:
	.cfi_def_cfa_register %rbp
	movq	%rdi, -8(%rbp)
	movq	%rsi, -16(%rbp)
	.loc	1 20 51 prologue_end    ## xiao/lib/function.cc:20:51
Ltmp41:
	popq	%rbp
	ret
Ltmp42:
Lfunc_end5:
	.cfi_endproc

	.globl	__ZN4xiao8Function12NonLocalJumpEPNS_14MachineContextE
	.align	4, 0x90
__ZN4xiao8Function12NonLocalJumpEPNS_14MachineContextE: ## @_ZN4xiao8Function12NonLocalJumpEPNS_14MachineContextE
	.cfi_startproc
Lfunc_begin6:
	.loc	1 21 0                  ## xiao/lib/function.cc:21:0
## BB#0:                                ## %entry
	pushq	%rbp
Ltmp45:
	.cfi_def_cfa_offset 16
Ltmp46:
	.cfi_offset %rbp, -16
	movq	%rsp, %rbp
Ltmp47:
	.cfi_def_cfa_register %rbp
	movq	%rdi, -8(%rbp)
	movq	%rsi, -16(%rbp)
	.loc	1 21 57 prologue_end    ## xiao/lib/function.cc:21:57
Ltmp48:
	popq	%rbp
	ret
Ltmp49:
Lfunc_end6:
	.cfi_endproc

	.globl	__ZN4xiao8Function9LocalJumpEPNS_14MachineContextE
	.align	4, 0x90
__ZN4xiao8Function9LocalJumpEPNS_14MachineContextE: ## @_ZN4xiao8Function9LocalJumpEPNS_14MachineContextE
	.cfi_startproc
Lfunc_begin7:
	.loc	1 22 0                  ## xiao/lib/function.cc:22:0
## BB#0:                                ## %entry
	pushq	%rbp
Ltmp52:
	.cfi_def_cfa_offset 16
Ltmp53:
	.cfi_offset %rbp, -16
	movq	%rsp, %rbp
Ltmp54:
	.cfi_def_cfa_register %rbp
	movq	%rdi, -8(%rbp)
	movq	%rsi, -16(%rbp)
	.loc	1 22 54 prologue_end    ## xiao/lib/function.cc:22:54
Ltmp55:
	popq	%rbp
	ret
Ltmp56:
Lfunc_end7:
	.cfi_endproc

Ltext_end:
	.section	__DATA,__data
Ldata_end:
	.section	__TEXT,__text,regular,pure_instructions
Lsection_end1: