	.section	__TEXT,__text,regular,pure_instructions
	.file	1 "xiao/lib/patch.cc"
	.file	2 "./xiao/include/patch.h"
	.file	3 "./xiao/include/globals.h"
	.file	4 "./xiao/include/function.h"
	.file	5 "./xiao/include/unsafe_cast.h"
	.section	__TEXT,__text,regular,pure_instructions
Ltext_begin:
	.section	__DATA,__data
	.section	__TEXT,__text,regular,pure_instructions
	.globl	__ZN4xiao10EntryPatchC1EPNS_8FunctionEPh
	.align	4, 0x90
__ZN4xiao10EntryPatchC1EPNS_8FunctionEPh: ## @_ZN4xiao10EntryPatchC1EPNS_8FunctionEPh
	.cfi_startproc
Lfunc_begin0:
	.loc	1 32 0                  ## xiao/lib/patch.cc:32:0
## BB#0:                                ## %entry
	subq	$24, %rsp
Ltmp1:
	.cfi_def_cfa_offset 32
	movq	%rdi, 16(%rsp)
	movq	%rsi, 8(%rsp)
	movq	%rdx, (%rsp)
	movq	16(%rsp), %rdi
	.loc	1 32 1 prologue_end     ## xiao/lib/patch.cc:32:1
Ltmp2:
	movq	8(%rsp), %rsi
	movq	(%rsp), %rdx
	callq	__ZN4xiao10EntryPatchC2EPNS_8FunctionEPh
	addq	$24, %rsp
	ret
Ltmp3:
Lfunc_end0:
	.cfi_endproc

	.globl	__ZN4xiao10EntryPatchC2EPNS_8FunctionEPh
	.align	4, 0x90
__ZN4xiao10EntryPatchC2EPNS_8FunctionEPh: ## @_ZN4xiao10EntryPatchC2EPNS_8FunctionEPh
	.cfi_startproc
Lfunc_begin1:
	.loc	1 32 0                  ## xiao/lib/patch.cc:32:0
## BB#0:                                ## %entry
	subq	$40, %rsp
Ltmp5:
	.cfi_def_cfa_offset 48
	movl	$0, %eax
	movabsq	$48, %rcx
	movq	%rdi, 32(%rsp)
	movq	%rsi, 24(%rsp)
	movq	%rdx, 16(%rsp)
	movq	32(%rsp), %rdx
	.loc	1 32 1 prologue_end     ## xiao/lib/patch.cc:32:1
Ltmp6:
	movq	%rdx, %rsi
	movq	%rsi, %rdi
	movq	%rsi, 8(%rsp)           ## 8-byte Spill
	movl	%eax, %esi
	movq	%rdx, (%rsp)            ## 8-byte Spill
	movq	%rcx, %rdx
	callq	_memset
	movq	8(%rsp), %rdi           ## 8-byte Reload
	callq	__ZN4xiao13AbstractPatchC2Ev
	movq	__ZTVN4xiao10EntryPatchE@GOTPCREL(%rip), %rcx
	addq	$16, %rcx
	movq	(%rsp), %rdx            ## 8-byte Reload
	movq	%rcx, (%rdx)
	.loc	1 32 1                  ## xiao/lib/patch.cc:32:1
Ltmp7:
	movq	24(%rsp), %rcx
	movq	%rcx, 32(%rdx)
	movq	16(%rsp), %rcx
	movq	%rcx, 16(%rdx)
	movl	$0, 8(%rdx)
	addq	$40, %rsp
	ret
Ltmp8:
Lfunc_end1:
	.cfi_endproc

	.section	__TEXT,__textcoal_nt,coalesced,pure_instructions
	.globl	__ZN4xiao13AbstractPatchC2Ev
	.weak_definition	__ZN4xiao13AbstractPatchC2Ev
	.align	4, 0x90
__ZN4xiao13AbstractPatchC2Ev:           ## @_ZN4xiao13AbstractPatchC2Ev
	.cfi_startproc
Lfunc_begin2:
	.loc	2 51 0                  ## ./xiao/include/patch.h:51:0
## BB#0:                                ## %entry
	movq	__ZTVN4xiao13AbstractPatchE@GOTPCREL(%rip), %rax
	addq	$16, %rax
	movq	%rdi, -8(%rsp)
	movq	-8(%rsp), %rdi
	.loc	2 51 5 prologue_end     ## ./xiao/include/patch.h:51:5
Ltmp9:
	movq	%rax, (%rdi)
	.loc	2 51 5                  ## ./xiao/include/patch.h:51:5
Ltmp10:
	ret
Ltmp11:
Lfunc_end2:
	.cfi_endproc

	.section	__TEXT,__text,regular,pure_instructions
	.globl	__ZN4xiao11ReturnPatchC1EPNS_8FunctionEPh
	.align	4, 0x90
__ZN4xiao11ReturnPatchC1EPNS_8FunctionEPh: ## @_ZN4xiao11ReturnPatchC1EPNS_8FunctionEPh
	.cfi_startproc
Lfunc_begin3:
	.loc	1 33 0                  ## xiao/lib/patch.cc:33:0
## BB#0:                                ## %entry
	subq	$24, %rsp
Ltmp13:
	.cfi_def_cfa_offset 32
	movq	%rdi, 16(%rsp)
	movq	%rsi, 8(%rsp)
	movq	%rdx, (%rsp)
	movq	16(%rsp), %rdi
	.loc	1 33 1 prologue_end     ## xiao/lib/patch.cc:33:1
Ltmp14:
	movq	8(%rsp), %rsi
	movq	(%rsp), %rdx
	callq	__ZN4xiao11ReturnPatchC2EPNS_8FunctionEPh
	addq	$24, %rsp
	ret
Ltmp15:
Lfunc_end3:
	.cfi_endproc

	.globl	__ZN4xiao11ReturnPatchC2EPNS_8FunctionEPh
	.align	4, 0x90
__ZN4xiao11ReturnPatchC2EPNS_8FunctionEPh: ## @_ZN4xiao11ReturnPatchC2EPNS_8FunctionEPh
	.cfi_startproc
Lfunc_begin4:
	.loc	1 33 0                  ## xiao/lib/patch.cc:33:0
## BB#0:                                ## %entry
	subq	$40, %rsp
Ltmp17:
	.cfi_def_cfa_offset 48
	movl	$0, %eax
	movabsq	$48, %rcx
	movq	%rdi, 32(%rsp)
	movq	%rsi, 24(%rsp)
	movq	%rdx, 16(%rsp)
	movq	32(%rsp), %rdx
	.loc	1 33 1 prologue_end     ## xiao/lib/patch.cc:33:1
Ltmp18:
	movq	%rdx, %rsi
	movq	%rsi, %rdi
	movq	%rsi, 8(%rsp)           ## 8-byte Spill
	movl	%eax, %esi
	movq	%rdx, (%rsp)            ## 8-byte Spill
	movq	%rcx, %rdx
	callq	_memset
	movq	8(%rsp), %rdi           ## 8-byte Reload
	callq	__ZN4xiao13AbstractPatchC2Ev
	movq	__ZTVN4xiao11ReturnPatchE@GOTPCREL(%rip), %rcx
	addq	$16, %rcx
	movq	(%rsp), %rdx            ## 8-byte Reload
	movq	%rcx, (%rdx)
	.loc	1 33 1                  ## xiao/lib/patch.cc:33:1
Ltmp19:
	movq	24(%rsp), %rcx
	movq	%rcx, 32(%rdx)
	movq	16(%rsp), %rcx
	movq	%rcx, 16(%rdx)
	movl	$1, 8(%rdx)
	addq	$40, %rsp
	ret
Ltmp20:
Lfunc_end4:
	.cfi_endproc

	.globl	__ZN4xiao17NonLocalJumpPatchC1EPNS_8FunctionEPh
	.align	4, 0x90
__ZN4xiao17NonLocalJumpPatchC1EPNS_8FunctionEPh: ## @_ZN4xiao17NonLocalJumpPatchC1EPNS_8FunctionEPh
	.cfi_startproc
Lfunc_begin5:
	.loc	1 34 0                  ## xiao/lib/patch.cc:34:0
## BB#0:                                ## %entry
	subq	$24, %rsp
Ltmp22:
	.cfi_def_cfa_offset 32
	movq	%rdi, 16(%rsp)
	movq	%rsi, 8(%rsp)
	movq	%rdx, (%rsp)
	movq	16(%rsp), %rdi
	.loc	1 34 1 prologue_end     ## xiao/lib/patch.cc:34:1
Ltmp23:
	movq	8(%rsp), %rsi
	movq	(%rsp), %rdx
	callq	__ZN4xiao17NonLocalJumpPatchC2EPNS_8FunctionEPh
	addq	$24, %rsp
	ret
Ltmp24:
Lfunc_end5:
	.cfi_endproc

	.globl	__ZN4xiao17NonLocalJumpPatchC2EPNS_8FunctionEPh
	.align	4, 0x90
__ZN4xiao17NonLocalJumpPatchC2EPNS_8FunctionEPh: ## @_ZN4xiao17NonLocalJumpPatchC2EPNS_8FunctionEPh
	.cfi_startproc
Lfunc_begin6:
	.loc	1 34 0                  ## xiao/lib/patch.cc:34:0
## BB#0:                                ## %entry
	subq	$40, %rsp
Ltmp26:
	.cfi_def_cfa_offset 48
	movl	$0, %eax
	movabsq	$48, %rcx
	movq	%rdi, 32(%rsp)
	movq	%rsi, 24(%rsp)
	movq	%rdx, 16(%rsp)
	movq	32(%rsp), %rdx
	.loc	1 34 1 prologue_end     ## xiao/lib/patch.cc:34:1
Ltmp27:
	movq	%rdx, %rsi
	movq	%rsi, %rdi
	movq	%rsi, 8(%rsp)           ## 8-byte Spill
	movl	%eax, %esi
	movq	%rdx, (%rsp)            ## 8-byte Spill
	movq	%rcx, %rdx
	callq	_memset
	movq	8(%rsp), %rdi           ## 8-byte Reload
	callq	__ZN4xiao13AbstractPatchC2Ev
	movq	__ZTVN4xiao17NonLocalJumpPatchE@GOTPCREL(%rip), %rcx
	addq	$16, %rcx
	movq	(%rsp), %rdx            ## 8-byte Reload
	movq	%rcx, (%rdx)
	.loc	1 34 1                  ## xiao/lib/patch.cc:34:1
Ltmp28:
	movq	24(%rsp), %rcx
	movq	%rcx, 32(%rdx)
	movq	16(%rsp), %rcx
	movq	%rcx, 16(%rdx)
	movl	$2, 8(%rdx)
	addq	$40, %rsp
	ret
Ltmp29:
Lfunc_end6:
	.cfi_endproc

	.globl	__ZN4xiao14LocalJumpPatchC1EPNS_8FunctionEPh
	.align	4, 0x90
__ZN4xiao14LocalJumpPatchC1EPNS_8FunctionEPh: ## @_ZN4xiao14LocalJumpPatchC1EPNS_8FunctionEPh
	.cfi_startproc
Lfunc_begin7:
	.loc	1 35 0                  ## xiao/lib/patch.cc:35:0
## BB#0:                                ## %entry
	subq	$24, %rsp
Ltmp31:
	.cfi_def_cfa_offset 32
	movq	%rdi, 16(%rsp)
	movq	%rsi, 8(%rsp)
	movq	%rdx, (%rsp)
	movq	16(%rsp), %rdi
	.loc	1 35 1 prologue_end     ## xiao/lib/patch.cc:35:1
Ltmp32:
	movq	8(%rsp), %rsi
	movq	(%rsp), %rdx
	callq	__ZN4xiao14LocalJumpPatchC2EPNS_8FunctionEPh
	addq	$24, %rsp
	ret
Ltmp33:
Lfunc_end7:
	.cfi_endproc

	.globl	__ZN4xiao14LocalJumpPatchC2EPNS_8FunctionEPh
	.align	4, 0x90
__ZN4xiao14LocalJumpPatchC2EPNS_8FunctionEPh: ## @_ZN4xiao14LocalJumpPatchC2EPNS_8FunctionEPh
	.cfi_startproc
Lfunc_begin8:
	.loc	1 35 0                  ## xiao/lib/patch.cc:35:0
## BB#0:                                ## %entry
	subq	$40, %rsp
Ltmp35:
	.cfi_def_cfa_offset 48
	movl	$0, %eax
	movabsq	$48, %rcx
	movq	%rdi, 32(%rsp)
	movq	%rsi, 24(%rsp)
	movq	%rdx, 16(%rsp)
	movq	32(%rsp), %rdx
	.loc	1 35 1 prologue_end     ## xiao/lib/patch.cc:35:1
Ltmp36:
	movq	%rdx, %rsi
	movq	%rsi, %rdi
	movq	%rsi, 8(%rsp)           ## 8-byte Spill
	movl	%eax, %esi
	movq	%rdx, (%rsp)            ## 8-byte Spill
	movq	%rcx, %rdx
	callq	_memset
	movq	8(%rsp), %rdi           ## 8-byte Reload
	callq	__ZN4xiao13AbstractPatchC2Ev
	movq	__ZTVN4xiao14LocalJumpPatchE@GOTPCREL(%rip), %rcx
	addq	$16, %rcx
	movq	(%rsp), %rdx            ## 8-byte Reload
	movq	%rcx, (%rdx)
	.loc	1 35 1                  ## xiao/lib/patch.cc:35:1
Ltmp37:
	movq	24(%rsp), %rcx
	movq	%rcx, 32(%rdx)
	movq	16(%rsp), %rcx
	movq	%rcx, 16(%rdx)
	movl	$3, 8(%rdx)
	addq	$40, %rsp
	ret
Ltmp38:
Lfunc_end8:
	.cfi_endproc

	.globl	__ZN4xiao10EntryPatch5applyEv
	.align	4, 0x90
__ZN4xiao10EntryPatch5applyEv:          ## @_ZN4xiao10EntryPatch5applyEv
	.cfi_startproc
Lfunc_begin9:
	.loc	1 41 0                  ## xiao/lib/patch.cc:41:0
## BB#0:                                ## %entry
	subq	$24, %rsp
Ltmp40:
	.cfi_def_cfa_offset 32
	movq	%rdi, 16(%rsp)
	movq	16(%rsp), %rdi
	.loc	1 42 23 prologue_end    ## xiao/lib/patch.cc:42:23
Ltmp41:
	movq	16(%rdi), %rax
	.loc	1 42 53                 ## xiao/lib/patch.cc:42:53
	movq	32(%rdi), %rdi
	movq	%rax, 8(%rsp)           ## 8-byte Spill
	callq	__ZN4xiaoL5imm32EPNS_8FunctionE
	movq	8(%rsp), %rdi           ## 8-byte Reload
	movl	%eax, %esi
	callq	__ZN4xiao4emit10push_imm32EPhj
	movq	__ZN4xiao9EntryStubEv@GOTPCREL(%rip), %rsi
	movq	%rax, %rdi
	callq	__ZN4xiao4emit11call_addr32EPhPFvvE
	.loc	1 44 1                  ## xiao/lib/patch.cc:44:1
	movq	%rax, (%rsp)            ## 8-byte Spill
	addq	$24, %rsp
	ret
Ltmp42:
Lfunc_end9:
	.cfi_endproc

	.align	4, 0x90
__ZN4xiaoL5imm32EPNS_8FunctionE:        ## @_ZN4xiaoL5imm32EPNS_8FunctionE
	.cfi_startproc
Lfunc_begin10:
	.loc	1 37 0                  ## xiao/lib/patch.cc:37:0
## BB#0:                                ## %entry
	leaq	-32(%rsp), %rax
	movq	%rdi, -40(%rsp)
	.loc	1 38 34 prologue_end    ## xiao/lib/patch.cc:38:34
Ltmp43:
	movq	-40(%rsp), %rdi
	movq	%rdi, -24(%rsp)
	.loc	5 27 12                 ## ./xiao/include/unsafe_cast.h:27:12
Ltmp44:
	movq	-24(%rsp), %rdi
	movq	%rdi, -32(%rsp)
	movq	%rax, -8(%rsp)
	.loc	5 21 5                  ## ./xiao/include/unsafe_cast.h:21:5
Ltmp45:
	movq	-8(%rsp), %rax
	movq	(%rax), %rax
	movq	%rax, -16(%rsp)
	.loc	5 22 5                  ## ./xiao/include/unsafe_cast.h:22:5
	movq	-16(%rsp), %rax
Ltmp46:
	.loc	1 38 34                 ## xiao/lib/patch.cc:38:34
	movl	%eax, %ecx
	movl	%ecx, %eax
	ret
Ltmp47:
Lfunc_end10:
	.cfi_endproc

	.globl	__ZN4xiao10EntryPatch6revertEv
	.align	4, 0x90
__ZN4xiao10EntryPatch6revertEv:         ## @_ZN4xiao10EntryPatch6revertEv
	.cfi_startproc
Lfunc_begin11:
	.loc	1 46 0                  ## xiao/lib/patch.cc:46:0
## BB#0:                                ## %entry
	subq	$24, %rsp
Ltmp49:
	.cfi_def_cfa_offset 32
	movl	$10, %esi
	movq	%rdi, 16(%rsp)
	movq	16(%rsp), %rdi
	.loc	1 47 17 prologue_end    ## xiao/lib/patch.cc:47:17
Ltmp50:
	movq	16(%rdi), %rdi
	callq	__ZN4xiao4emit11jmp_offset8EPhh
	movq	%rax, 8(%rsp)
	.loc	1 48 23                 ## xiao/lib/patch.cc:48:23
Ltmp51:
	movl	$0, 4(%rsp)
LBB11_1:                                ## %for.cond
                                        ## =>This Inner Loop Header: Depth=1
	cmpl	$10, 4(%rsp)
	jae	LBB11_4
## BB#2:                                ## %for.body
                                        ##   in Loop: Header=BB11_1 Depth=1
	.loc	1 49 16                 ## xiao/lib/patch.cc:49:16
Ltmp52:
	movq	8(%rsp), %rdi
	callq	__ZN4xiao4emit3nopEPh
	movq	%rax, 8(%rsp)
Ltmp53:
## BB#3:                                ## %for.inc
                                        ##   in Loop: Header=BB11_1 Depth=1
	.loc	1 48 43                 ## xiao/lib/patch.cc:48:43
	movl	4(%rsp), %eax
	addl	$1, %eax
	movl	%eax, 4(%rsp)
	jmp	LBB11_1
Ltmp54:
LBB11_4:                                ## %for.end
	.loc	1 51 1                  ## xiao/lib/patch.cc:51:1
	addq	$24, %rsp
	ret
Ltmp55:
Lfunc_end11:
	.cfi_endproc

	.globl	__ZN4xiao11ReturnPatch5applyEv
	.align	4, 0x90
__ZN4xiao11ReturnPatch5applyEv:         ## @_ZN4xiao11ReturnPatch5applyEv
	.cfi_startproc
Lfunc_begin12:
	.loc	1 53 0                  ## xiao/lib/patch.cc:53:0
## BB#0:                                ## %entry
	subq	$24, %rsp
Ltmp57:
	.cfi_def_cfa_offset 32
	movq	%rdi, 16(%rsp)
	movq	16(%rsp), %rdi
	.loc	1 54 22 prologue_end    ## xiao/lib/patch.cc:54:22
Ltmp58:
	movq	16(%rdi), %rax
	.loc	1 54 52                 ## xiao/lib/patch.cc:54:52
	movq	32(%rdi), %rdi
	movq	%rax, 8(%rsp)           ## 8-byte Spill
	callq	__ZN4xiaoL5imm32EPNS_8FunctionE
	movq	8(%rsp), %rdi           ## 8-byte Reload
	movl	%eax, %esi
	callq	__ZN4xiao4emit10push_imm32EPhj
	movq	__ZN4xiao10ReturnStubEv@GOTPCREL(%rip), %rsi
	movq	%rax, %rdi
	callq	__ZN4xiao4emit10jmp_addr32EPhPFvvE
	.loc	1 56 1                  ## xiao/lib/patch.cc:56:1
	movq	%rax, (%rsp)            ## 8-byte Spill
	addq	$24, %rsp
	ret
Ltmp59:
Lfunc_end12:
	.cfi_endproc

	.globl	__ZN4xiao11ReturnPatch6revertEv
	.align	4, 0x90
__ZN4xiao11ReturnPatch6revertEv:        ## @_ZN4xiao11ReturnPatch6revertEv
	.cfi_startproc
Lfunc_begin13:
	.loc	1 58 0                  ## xiao/lib/patch.cc:58:0
## BB#0:                                ## %entry
	subq	$24, %rsp
Ltmp61:
	.cfi_def_cfa_offset 32
	movq	%rdi, 16(%rsp)
	movq	16(%rsp), %rdi
	.loc	1 59 17 prologue_end    ## xiao/lib/patch.cc:59:17
Ltmp62:
	movq	16(%rdi), %rdi
	callq	__ZN4xiao4emit3retEPh
	movq	%rax, 8(%rsp)
	.loc	1 60 23                 ## xiao/lib/patch.cc:60:23
Ltmp63:
	movl	$0, 4(%rsp)
LBB13_1:                                ## %for.cond
                                        ## =>This Inner Loop Header: Depth=1
	cmpl	$10, 4(%rsp)
	jae	LBB13_4
## BB#2:                                ## %for.body
                                        ##   in Loop: Header=BB13_1 Depth=1
	.loc	1 61 16                 ## xiao/lib/patch.cc:61:16
Ltmp64:
	movq	8(%rsp), %rdi
	callq	__ZN4xiao4emit3nopEPh
	movq	%rax, 8(%rsp)
Ltmp65:
## BB#3:                                ## %for.inc
                                        ##   in Loop: Header=BB13_1 Depth=1
	.loc	1 60 43                 ## xiao/lib/patch.cc:60:43
	movl	4(%rsp), %eax
	addl	$1, %eax
	movl	%eax, 4(%rsp)
	jmp	LBB13_1
Ltmp66:
LBB13_4:                                ## %for.end
	.loc	1 63 1                  ## xiao/lib/patch.cc:63:1
	addq	$24, %rsp
	ret
Ltmp67:
Lfunc_end13:
	.cfi_endproc

	.globl	__ZN4xiao17NonLocalJumpPatch5applyEv
	.align	4, 0x90
__ZN4xiao17NonLocalJumpPatch5applyEv:   ## @_ZN4xiao17NonLocalJumpPatch5applyEv
	.cfi_startproc
Lfunc_begin14:
	.loc	1 65 0                  ## xiao/lib/patch.cc:65:0
## BB#0:                                ## %entry
	movq	%rdi, -8(%rsp)
	.loc	1 67 1 prologue_end     ## xiao/lib/patch.cc:67:1
Ltmp68:
	ret
Ltmp69:
Lfunc_end14:
	.cfi_endproc

	.globl	__ZN4xiao17NonLocalJumpPatch6revertEv
	.align	4, 0x90
__ZN4xiao17NonLocalJumpPatch6revertEv:  ## @_ZN4xiao17NonLocalJumpPatch6revertEv
	.cfi_startproc
Lfunc_begin15:
	.loc	1 69 0                  ## xiao/lib/patch.cc:69:0
## BB#0:                                ## %entry
	movq	%rdi, -8(%rsp)
	.loc	1 71 1 prologue_end     ## xiao/lib/patch.cc:71:1
Ltmp70:
	ret
Ltmp71:
Lfunc_end15:
	.cfi_endproc

	.globl	__ZN4xiao14LocalJumpPatch5applyEv
	.align	4, 0x90
__ZN4xiao14LocalJumpPatch5applyEv:      ## @_ZN4xiao14LocalJumpPatch5applyEv
	.cfi_startproc
Lfunc_begin16:
	.loc	1 73 0                  ## xiao/lib/patch.cc:73:0
## BB#0:                                ## %entry
	movq	%rdi, -8(%rsp)
	.loc	1 75 1 prologue_end     ## xiao/lib/patch.cc:75:1
Ltmp72:
	ret
Ltmp73:
Lfunc_end16:
	.cfi_endproc

	.globl	__ZN4xiao14LocalJumpPatch6revertEv
	.align	4, 0x90
__ZN4xiao14LocalJumpPatch6revertEv:     ## @_ZN4xiao14LocalJumpPatch6revertEv
	.cfi_startproc
Lfunc_begin17:
	.loc	1 77 0                  ## xiao/lib/patch.cc:77:0
## BB#0:                                ## %entry
	movq	%rdi, -8(%rsp)
	.loc	1 79 1 prologue_end     ## xiao/lib/patch.cc:79:1
Ltmp74:
	ret
Ltmp75:
Lfunc_end17:
	.cfi_endproc

	.section	__TEXT,__textcoal_nt,coalesced,pure_instructions
	.globl	__ZN4xiao13AbstractPatchD1Ev
	.weak_definition	__ZN4xiao13AbstractPatchD1Ev
	.align	4, 0x90
__ZN4xiao13AbstractPatchD1Ev:           ## @_ZN4xiao13AbstractPatchD1Ev
	.cfi_startproc
Lfunc_begin18:
	.loc	2 52 0                  ## ./xiao/include/patch.h:52:0
## BB#0:                                ## %entry
	pushq	%rax
Ltmp77:
	.cfi_def_cfa_offset 16
	movq	%rdi, (%rsp)
	movq	(%rsp), %rdi
	.loc	2 52 13 prologue_end    ## ./xiao/include/patch.h:52:13
Ltmp78:
	callq	__ZN4xiao13AbstractPatchD2Ev
	popq	%rax
	ret
Ltmp79:
Lfunc_end18:
	.cfi_endproc

	.globl	__ZN4xiao13AbstractPatchD0Ev
	.weak_definition	__ZN4xiao13AbstractPatchD0Ev
	.align	4, 0x90
__ZN4xiao13AbstractPatchD0Ev:           ## @_ZN4xiao13AbstractPatchD0Ev
	.cfi_startproc
Lfunc_begin19:
	.loc	2 52 0                  ## ./xiao/include/patch.h:52:0
## BB#0:                                ## %entry
	subq	$24, %rsp
Ltmp81:
	.cfi_def_cfa_offset 32
	movq	%rdi, 16(%rsp)
	movq	16(%rsp), %rdi
	.loc	2 52 13 prologue_end    ## ./xiao/include/patch.h:52:13
Ltmp82:
	movq	%rdi, 8(%rsp)           ## 8-byte Spill
	callq	__ZN4xiao13AbstractPatchD1Ev
	movq	8(%rsp), %rdi           ## 8-byte Reload
	callq	__ZdlPv
	addq	$24, %rsp
	ret
Ltmp83:
Lfunc_end19:
	.cfi_endproc

	.globl	__ZN4xiao13AbstractPatchD2Ev
	.weak_definition	__ZN4xiao13AbstractPatchD2Ev
	.align	4, 0x90
__ZN4xiao13AbstractPatchD2Ev:           ## @_ZN4xiao13AbstractPatchD2Ev
	.cfi_startproc
Lfunc_begin20:
	.loc	2 52 0                  ## ./xiao/include/patch.h:52:0
## BB#0:                                ## %entry
	movq	%rdi, -8(%rsp)
	.loc	2 52 13 prologue_end    ## ./xiao/include/patch.h:52:13
Ltmp84:
	ret
Ltmp85:
Lfunc_end20:
	.cfi_endproc

	.section	__DATA,__datacoal_nt,coalesced
	.globl	__ZTVN4xiao13AbstractPatchE ## @_ZTVN4xiao13AbstractPatchE
	.weak_definition	__ZTVN4xiao13AbstractPatchE
	.align	4
__ZTVN4xiao13AbstractPatchE:
	.quad	0
	.quad	0
	.quad	__ZN4xiao13AbstractPatchD1Ev
	.quad	__ZN4xiao13AbstractPatchD0Ev
	.quad	___cxa_pure_virtual
	.quad	___cxa_pure_virtual

	.section	__TEXT,__text,regular,pure_instructions
Ltext_end:
	.section	__DATA,__data
Ldata_end:
	.section	__TEXT,__text,regular,pure_instructions
Lsection_end1: